; Function Attrs: nofree norecurse nosync nounwind memory(readwrite, argmem: write, inaccessiblemem: none) uwtable
define internal noundef i32 @self_test_rng(ptr readnone captures(none) %0, ptr noundef writeonly captures(none) %1, i64 noundef %2) #14 {
  %.not = icmp eq i64 %2, 0
  br i1 %.not, label %4, label %.lr.ph.preheader

.lr.ph.preheader:                                 ; preds = %3
  %self_test_rng.state.promoted = load i32, ptr @self_test_rng.state, align 4
  br label %.lr.ph

._crit_edge:                                      ; preds = %.lr.ph
  store i32 %7, ptr @self_test_rng.state, align 4, !tbaa !3
  br label %4

4:                                                ; preds = %._crit_edge, %3
  ret i32 0

.lr.ph:                                           ; preds = %.lr.ph.preheader, %.lr.ph
  %.04 = phi i64 [ %10, %.lr.ph ], [ 0, %.lr.ph.preheader ]
  %5 = phi i32 [ %7, %.lr.ph ], [ %self_test_rng.state.promoted, %.lr.ph.preheader ]
  %6 = mul i32 %5, 1664525
  %7 = add i32 %6, 1013904223
  %8 = trunc i32 %7 to i8
  %9 = getelementptr inbounds nuw i8, ptr %1, i64 %.04
  store i8 %8, ptr %9, align 1, !tbaa !34
  %10 = add nuw i64 %.04, 1
  %exitcond.not = icmp eq i64 %10, %2
  br i1 %exitcond.not, label %._crit_edge, label %.lr.ph, !llvm.loop !60
}